target datalayout = "e-m:e-p270:32:32-p271:32:32-p272:64:64-i64:64-i128:128-f80:128-n8:16:32:64-S128"
target triple = "x86_64-pc-linux-gnu"

%class.LIR_Opr = type { i64 }
%class.GrowableArrayBase = type { i32, i32 }
%class.GrowableArrayMetadata = type { i64 }
%class.Interval = type { i32, i8, ptr, %class.GrowableArray.21, ptr, ptr, i32, i32, i32, i32, %class.LIR_Opr, ptr, ptr, ptr, ptr, i32, i8, i32, i32, ptr }
%class.GrowableArray.21 = type { %class.GrowableArrayWithAllocator.22, %class.GrowableArrayMetadata }
%class.GrowableArrayWithAllocator.22 = type { %class.GrowableArrayView.23 }
%class.GrowableArrayView.23 = type { %class.GrowableArrayBase, ptr }

; Function Attrs: mustprogress nounwind uwtable
define linkonce_odr hidden noundef nonnull align 4 dereferenceable(4) ptr @_ZNK17GrowableArrayViewIiE2atEi(ptr noundef nonnull align 8 dereferenceable(16) %0, i32 noundef %1) #1 comdat align 2 {
  %3 = alloca ptr, align 8
  %4 = alloca i32, align 4
  store ptr %0, ptr %3, align 8
  store i32 %1, ptr %4, align 4
  %5 = load ptr, ptr %3, align 8
  %6 = getelementptr inbounds %class.GrowableArrayView.23, ptr %5, i32 0, i32 1
  %7 = load ptr, ptr %6, align 8
  %8 = load i32, ptr %4, align 4
  %9 = sext i32 %8 to i64
  %10 = getelementptr inbounds i32, ptr %7, i64 %9
  ret ptr %10
}

; Function Attrs: mustprogress nounwind uwtable
define linkonce_odr hidden noundef i32 @_ZNK17GrowableArrayBase6lengthEv(ptr noundef nonnull align 4 dereferenceable(8) %0) #1 comdat align 2 {
  %2 = alloca ptr, align 8
  store ptr %0, ptr %2, align 8
  %3 = load ptr, ptr %2, align 8
  %4 = getelementptr inbounds %class.GrowableArrayBase, ptr %3, i32 0, i32 0
  %5 = load i32, ptr %4, align 4
  ret i32 %5
}

; Function Attrs: mustprogress nounwind uwtable
define hidden noundef i32 @_ZNK8Interval11first_usageE15IntervalUseKind(ptr noundef nonnull align 8 dereferenceable(136) %0, i32 noundef %1) #1 align 2 {
  %3 = alloca i32, align 4
  %4 = alloca ptr, align 8
  %5 = alloca i32, align 4
  %6 = alloca i32, align 4
  store ptr %0, ptr %4, align 8
  store i32 %1, ptr %5, align 4
  %7 = load ptr, ptr %4, align 8
  %8 = getelementptr inbounds %class.Interval, ptr %7, i32 0, i32 3
  %9 = call noundef i32 @_ZNK17GrowableArrayBase6lengthEv(ptr noundef nonnull align 4 dereferenceable(8) %8)
  %10 = sub nsw i32 %9, 2
  store i32 %10, ptr %6, align 4
  br label %11

11:                                               ; preds = %28, %2
  %12 = load i32, ptr %6, align 4
  %13 = icmp sge i32 %12, 0
  br i1 %13, label %14, label %31

14:                                               ; preds = %11
  %15 = getelementptr inbounds %class.Interval, ptr %7, i32 0, i32 3
  %16 = load i32, ptr %6, align 4
  %17 = add nsw i32 %16, 1
  %18 = call noundef nonnull align 4 dereferenceable(4) ptr @_ZNK17GrowableArrayViewIiE2atEi(ptr noundef nonnull align 8 dereferenceable(16) %15, i32 noundef %17)
  %19 = load i32, ptr %18, align 4
  %20 = load i32, ptr %5, align 4
  %21 = icmp sge i32 %19, %20
  br i1 %21, label %22, label %27

22:                                               ; preds = %14
  %23 = getelementptr inbounds %class.Interval, ptr %7, i32 0, i32 3
  %24 = load i32, ptr %6, align 4
  %25 = call noundef nonnull align 4 dereferenceable(4) ptr @_ZNK17GrowableArrayViewIiE2atEi(ptr noundef nonnull align 8 dereferenceable(16) %23, i32 noundef %24)
  %26 = load i32, ptr %25, align 4
  store i32 %26, ptr %3, align 4
  br label %32

27:                                               ; preds = %14
  br label %28

28:                                               ; preds = %27
  %29 = load i32, ptr %6, align 4
  %30 = sub nsw i32 %29, 2
  store i32 %30, ptr %6, align 4
  br label %11, !llvm.loop !92

31:                                               ; preds = %11
  store i32 2147483647, ptr %3, align 4
  br label %32

32:                                               ; preds = %31, %22
  %33 = load i32, ptr %3, align 4
  ret i32 %33
}