; Function Attrs: mustprogress nofree norecurse nosync nounwind willreturn memory(read, inaccessiblemem: none) uwtable
define hidden noundef i32 @_ZNK8Interval11first_usageE15IntervalUseKind(ptr nocapture noundef nonnull readonly align 8 dereferenceable(136) %0, i32 noundef %1) local_unnamed_addr #6 align 2 {
  %3 = getelementptr inbounds i8, ptr %0, i64 16
  %4 = load i32, ptr %3, align 8
  %5 = getelementptr inbounds i8, ptr %0, i64 24
  %6 = load ptr, ptr %5, align 8
  %invariant.gep = getelementptr i8, ptr %6, i64 -4
  br label %7

7:                                                ; preds = %9, %2
  %.0.in = phi i32 [ %4, %2 ], [ %.0, %9 ]
  %8 = icmp sgt i32 %.0.in, 1
  br i1 %8, label %9, label %.loopexit

9:                                                ; preds = %7
  %.0 = add nsw i32 %.0.in, -2
  %10 = zext nneg i32 %.0.in to i64
  %gep = getelementptr i32, ptr %invariant.gep, i64 %10
  %11 = load i32, ptr %gep, align 4
  %.not = icmp slt i32 %11, %1
  br i1 %.not, label %7, label %12, !llvm.loop !99

12:                                               ; preds = %9
  %13 = zext nneg i32 %.0 to i64
  %14 = getelementptr inbounds i32, ptr %6, i64 %13
  %15 = load i32, ptr %14, align 4
  br label %.loopexit

.loopexit:                                        ; preds = %7, %12
  %.06 = phi i32 [ %15, %12 ], [ 2147483647, %7 ]
  ret i32 %.06
}